target datalayout = "e-m:e-p270:32:32-p271:32:32-p272:64:64-i64:64-i128:128-f80:128-n8:16:32:64-S128"
target triple = "x86_64-pc-linux-gnu"

%struct.AVMotionEstContext = type { ptr, ptr, i32, i32, i32, i32, i32, i32, i32, i32, i32, i32, i32, [2 x %struct.AVMotionEstPredictor], ptr }
%struct.AVMotionEstPredictor = type { [10 x [2 x i32]], i32 }

@sqr1 = internal constant [8 x [2 x i8]] [[2 x i8] c"\00\FF", [2 x i8] c"\00\01", [2 x i8] c"\FF\00", [2 x i8] c"\01\00", [2 x i8] c"\FF\FF", [2 x i8] c"\FF\01", [2 x i8] c"\01\FF", [2 x i8] c"\01\01"], align 16

; Function Attrs: nounwind uwtable
define i64 @ff_me_search_tss(ptr noundef %0, i32 noundef %1, i32 noundef %2, ptr noundef %3) #0 {
  %5 = alloca i64, align 8
  %6 = alloca ptr, align 8
  %7 = alloca i32, align 4
  %8 = alloca i32, align 4
  %9 = alloca ptr, align 8
  %10 = alloca i32, align 4
  %11 = alloca i32, align 4
  %12 = alloca i32, align 4
  %13 = alloca i32, align 4
  %14 = alloca i32, align 4
  %15 = alloca i32, align 4
  %16 = alloca i64, align 8
  %17 = alloca i64, align 8
  %18 = alloca i32, align 4
  %19 = alloca i32, align 4
  %20 = alloca i32, align 4
  store ptr %0, ptr %6, align 8, !tbaa !4
  store i32 %1, ptr %7, align 4, !tbaa !9
  store i32 %2, ptr %8, align 4, !tbaa !9
  store ptr %3, ptr %9, align 8, !tbaa !32
  call void @llvm.lifetime.start.p0(i64 4, ptr %10) #2
  call void @llvm.lifetime.start.p0(i64 4, ptr %11) #2
  call void @llvm.lifetime.start.p0(i64 4, ptr %12) #2
  %21 = load ptr, ptr %6, align 8, !tbaa !4
  %22 = getelementptr inbounds nuw %struct.AVMotionEstContext, ptr %21, i32 0, i32 7
  %23 = load i32, ptr %22, align 4, !tbaa !18
  %24 = load i32, ptr %7, align 4, !tbaa !9
  %25 = load ptr, ptr %6, align 8, !tbaa !4
  %26 = getelementptr inbounds nuw %struct.AVMotionEstContext, ptr %25, i32 0, i32 4
  %27 = load i32, ptr %26, align 8, !tbaa !16
  %28 = sub nsw i32 %24, %27
  %29 = icmp sgt i32 %23, %28
  br i1 %29, label %30, label %34

30:                                               ; preds = %4
  %31 = load ptr, ptr %6, align 8, !tbaa !4
  %32 = getelementptr inbounds nuw %struct.AVMotionEstContext, ptr %31, i32 0, i32 7
  %33 = load i32, ptr %32, align 4, !tbaa !18
  br label %40

34:                                               ; preds = %4
  %35 = load i32, ptr %7, align 4, !tbaa !9
  %36 = load ptr, ptr %6, align 8, !tbaa !4
  %37 = getelementptr inbounds nuw %struct.AVMotionEstContext, ptr %36, i32 0, i32 4
  %38 = load i32, ptr %37, align 8, !tbaa !16
  %39 = sub nsw i32 %35, %38
  br label %40

40:                                               ; preds = %34, %30
  %41 = phi i32 [ %33, %30 ], [ %39, %34 ]
  store i32 %41, ptr %12, align 4, !tbaa !9
  call void @llvm.lifetime.start.p0(i64 4, ptr %13) #2
  %42 = load ptr, ptr %6, align 8, !tbaa !4
  %43 = getelementptr inbounds nuw %struct.AVMotionEstContext, ptr %42, i32 0, i32 9
  %44 = load i32, ptr %43, align 4, !tbaa !20
  %45 = load i32, ptr %8, align 4, !tbaa !9
  %46 = load ptr, ptr %6, align 8, !tbaa !4
  %47 = getelementptr inbounds nuw %struct.AVMotionEstContext, ptr %46, i32 0, i32 4
  %48 = load i32, ptr %47, align 8, !tbaa !16
  %49 = sub nsw i32 %45, %48
  %50 = icmp sgt i32 %44, %49
  br i1 %50, label %51, label %55

51:                                               ; preds = %40
  %52 = load ptr, ptr %6, align 8, !tbaa !4
  %53 = getelementptr inbounds nuw %struct.AVMotionEstContext, ptr %52, i32 0, i32 9
  %54 = load i32, ptr %53, align 4, !tbaa !20
  br label %61

55:                                               ; preds = %40
  %56 = load i32, ptr %8, align 4, !tbaa !9
  %57 = load ptr, ptr %6, align 8, !tbaa !4
  %58 = getelementptr inbounds nuw %struct.AVMotionEstContext, ptr %57, i32 0, i32 4
  %59 = load i32, ptr %58, align 8, !tbaa !16
  %60 = sub nsw i32 %56, %59
  br label %61

61:                                               ; preds = %55, %51
  %62 = phi i32 [ %54, %51 ], [ %60, %55 ]
  store i32 %62, ptr %13, align 4, !tbaa !9
  call void @llvm.lifetime.start.p0(i64 4, ptr %14) #2
  %63 = load i32, ptr %7, align 4, !tbaa !9
  %64 = load ptr, ptr %6, align 8, !tbaa !4
  %65 = getelementptr inbounds nuw %struct.AVMotionEstContext, ptr %64, i32 0, i32 4
  %66 = load i32, ptr %65, align 8, !tbaa !16
  %67 = add nsw i32 %63, %66
  %68 = load ptr, ptr %6, align 8, !tbaa !4
  %69 = getelementptr inbounds nuw %struct.AVMotionEstContext, ptr %68, i32 0, i32 8
  %70 = load i32, ptr %69, align 8, !tbaa !19
  %71 = icmp sgt i32 %67, %70
  br i1 %71, label %72, label %76

72:                                               ; preds = %61
  %73 = load ptr, ptr %6, align 8, !tbaa !4
  %74 = getelementptr inbounds nuw %struct.AVMotionEstContext, ptr %73, i32 0, i32 8
  %75 = load i32, ptr %74, align 8, !tbaa !19
  br label %82

76:                                               ; preds = %61
  %77 = load i32, ptr %7, align 4, !tbaa !9
  %78 = load ptr, ptr %6, align 8, !tbaa !4
  %79 = getelementptr inbounds nuw %struct.AVMotionEstContext, ptr %78, i32 0, i32 4
  %80 = load i32, ptr %79, align 8, !tbaa !16
  %81 = add nsw i32 %77, %80
  br label %82

82:                                               ; preds = %76, %72
  %83 = phi i32 [ %75, %72 ], [ %81, %76 ]
  store i32 %83, ptr %14, align 4, !tbaa !9
  call void @llvm.lifetime.start.p0(i64 4, ptr %15) #2
  %84 = load i32, ptr %8, align 4, !tbaa !9
  %85 = load ptr, ptr %6, align 8, !tbaa !4
  %86 = getelementptr inbounds nuw %struct.AVMotionEstContext, ptr %85, i32 0, i32 4
  %87 = load i32, ptr %86, align 8, !tbaa !16
  %88 = add nsw i32 %84, %87
  %89 = load ptr, ptr %6, align 8, !tbaa !4
  %90 = getelementptr inbounds nuw %struct.AVMotionEstContext, ptr %89, i32 0, i32 10
  %91 = load i32, ptr %90, align 8, !tbaa !21
  %92 = icmp sgt i32 %88, %91
  br i1 %92, label %93, label %97

93:                                               ; preds = %82
  %94 = load ptr, ptr %6, align 8, !tbaa !4
  %95 = getelementptr inbounds nuw %struct.AVMotionEstContext, ptr %94, i32 0, i32 10
  %96 = load i32, ptr %95, align 8, !tbaa !21
  br label %103

97:                                               ; preds = %82
  %98 = load i32, ptr %8, align 4, !tbaa !9
  %99 = load ptr, ptr %6, align 8, !tbaa !4
  %100 = getelementptr inbounds nuw %struct.AVMotionEstContext, ptr %99, i32 0, i32 4
  %101 = load i32, ptr %100, align 8, !tbaa !16
  %102 = add nsw i32 %98, %101
  br label %103

103:                                              ; preds = %97, %93
  %104 = phi i32 [ %96, %93 ], [ %102, %97 ]
  store i32 %104, ptr %15, align 4, !tbaa !9
  call void @llvm.lifetime.start.p0(i64 8, ptr %16) #2
  call void @llvm.lifetime.start.p0(i64 8, ptr %17) #2
  call void @llvm.lifetime.start.p0(i64 4, ptr %18) #2
  %105 = load ptr, ptr %6, align 8, !tbaa !4
  %106 = getelementptr inbounds nuw %struct.AVMotionEstContext, ptr %105, i32 0, i32 4
  %107 = load i32, ptr %106, align 8, !tbaa !16
  %108 = icmp sge i32 %107, 0
  br i1 %108, label %109, label %114

109:                                              ; preds = %103
  %110 = load ptr, ptr %6, align 8, !tbaa !4
  %111 = getelementptr inbounds nuw %struct.AVMotionEstContext, ptr %110, i32 0, i32 4
  %112 = load i32, ptr %111, align 8, !tbaa !16
  %113 = add nsw i32 %112, 1
  br label %119

114:                                              ; preds = %103
  %115 = load ptr, ptr %6, align 8, !tbaa !4
  %116 = getelementptr inbounds nuw %struct.AVMotionEstContext, ptr %115, i32 0, i32 4
  %117 = load i32, ptr %116, align 8, !tbaa !16
  %118 = sub nsw i32 %117, 1
  br label %119

119:                                              ; preds = %114, %109
  %120 = phi i32 [ %113, %109 ], [ %118, %114 ]
  %121 = sdiv i32 %120, 2
  store i32 %121, ptr %18, align 4, !tbaa !9
  call void @llvm.lifetime.start.p0(i64 4, ptr %19) #2
  %122 = load i32, ptr %7, align 4, !tbaa !9
  %123 = load ptr, ptr %9, align 8, !tbaa !32
  %124 = getelementptr inbounds i32, ptr %123, i64 0
  store i32 %122, ptr %124, align 4, !tbaa !9
  %125 = load i32, ptr %8, align 4, !tbaa !9
  %126 = load ptr, ptr %9, align 8, !tbaa !32
  %127 = getelementptr inbounds i32, ptr %126, i64 1
  store i32 %125, ptr %127, align 4, !tbaa !9
  %128 = load ptr, ptr %6, align 8, !tbaa !4
  %129 = getelementptr inbounds nuw %struct.AVMotionEstContext, ptr %128, i32 0, i32 14
  %130 = load ptr, ptr %129, align 8, !tbaa !17
  %131 = load ptr, ptr %6, align 8, !tbaa !4
  %132 = load i32, ptr %7, align 4, !tbaa !9
  %133 = load i32, ptr %8, align 4, !tbaa !9
  %134 = load i32, ptr %7, align 4, !tbaa !9
  %135 = load i32, ptr %8, align 4, !tbaa !9
  %136 = call i64 %130(ptr noundef %131, i32 noundef %132, i32 noundef %133, i32 noundef %134, i32 noundef %135)
  store i64 %136, ptr %17, align 8, !tbaa !26
  %137 = icmp ne i64 %136, 0
  br i1 %137, label %140, label %138

138:                                              ; preds = %119
  %139 = load i64, ptr %17, align 8, !tbaa !26
  store i64 %139, ptr %5, align 8
  store i32 1, ptr %20, align 4
  br label %276

140:                                              ; preds = %119
  br label %141

141:                                              ; preds = %271, %140
  %142 = load ptr, ptr %9, align 8, !tbaa !32
  %143 = getelementptr inbounds i32, ptr %142, i64 0
  %144 = load i32, ptr %143, align 4, !tbaa !9
  store i32 %144, ptr %10, align 4, !tbaa !9
  %145 = load ptr, ptr %9, align 8, !tbaa !32
  %146 = getelementptr inbounds i32, ptr %145, i64 1
  %147 = load i32, ptr %146, align 4, !tbaa !9
  store i32 %147, ptr %11, align 4, !tbaa !9
  store i32 0, ptr %19, align 4, !tbaa !9
  br label %148

148:                                              ; preds = %265, %141
  %149 = load i32, ptr %19, align 4, !tbaa !9
  %150 = icmp slt i32 %149, 8
  br i1 %150, label %151, label %268

151:                                              ; preds = %148
  %152 = load i32, ptr %10, align 4, !tbaa !9
  %153 = load i32, ptr %19, align 4, !tbaa !9
  %154 = sext i32 %153 to i64
  %155 = getelementptr inbounds [8 x [2 x i8]], ptr @sqr1, i64 0, i64 %154
  %156 = getelementptr inbounds [2 x i8], ptr %155, i64 0, i64 0
  %157 = load i8, ptr %156, align 2, !tbaa !28
  %158 = sext i8 %157 to i32
  %159 = load i32, ptr %18, align 4, !tbaa !9
  %160 = mul nsw i32 %158, %159
  %161 = add nsw i32 %152, %160
  %162 = load i32, ptr %12, align 4, !tbaa !9
  %163 = icmp sge i32 %161, %162
  br i1 %163, label %164, label %264

164:                                              ; preds = %151
  %165 = load i32, ptr %10, align 4, !tbaa !9
  %166 = load i32, ptr %19, align 4, !tbaa !9
  %167 = sext i32 %166 to i64
  %168 = getelementptr inbounds [8 x [2 x i8]], ptr @sqr1, i64 0, i64 %167
  %169 = getelementptr inbounds [2 x i8], ptr %168, i64 0, i64 0
  %170 = load i8, ptr %169, align 2, !tbaa !28
  %171 = sext i8 %170 to i32
  %172 = load i32, ptr %18, align 4, !tbaa !9
  %173 = mul nsw i32 %171, %172
  %174 = add nsw i32 %165, %173
  %175 = load i32, ptr %14, align 4, !tbaa !9
  %176 = icmp sle i32 %174, %175
  br i1 %176, label %177, label %264

177:                                              ; preds = %164
  %178 = load i32, ptr %11, align 4, !tbaa !9
  %179 = load i32, ptr %19, align 4, !tbaa !9
  %180 = sext i32 %179 to i64
  %181 = getelementptr inbounds [8 x [2 x i8]], ptr @sqr1, i64 0, i64 %180
  %182 = getelementptr inbounds [2 x i8], ptr %181, i64 0, i64 1
  %183 = load i8, ptr %182, align 1, !tbaa !28
  %184 = sext i8 %183 to i32
  %185 = load i32, ptr %18, align 4, !tbaa !9
  %186 = mul nsw i32 %184, %185
  %187 = add nsw i32 %178, %186
  %188 = load i32, ptr %13, align 4, !tbaa !9
  %189 = icmp sge i32 %187, %188
  br i1 %189, label %190, label %264

190:                                              ; preds = %177
  %191 = load i32, ptr %11, align 4, !tbaa !9
  %192 = load i32, ptr %19, align 4, !tbaa !9
  %193 = sext i32 %192 to i64
  %194 = getelementptr inbounds [8 x [2 x i8]], ptr @sqr1, i64 0, i64 %193
  %195 = getelementptr inbounds [2 x i8], ptr %194, i64 0, i64 1
  %196 = load i8, ptr %195, align 1, !tbaa !28
  %197 = sext i8 %196 to i32
  %198 = load i32, ptr %18, align 4, !tbaa !9
  %199 = mul nsw i32 %197, %198
  %200 = add nsw i32 %191, %199
  %201 = load i32, ptr %15, align 4, !tbaa !9
  %202 = icmp sle i32 %200, %201
  br i1 %202, label %203, label %264

203:                                              ; preds = %190
  br label %204

204:                                              ; preds = %203
  %205 = load ptr, ptr %6, align 8, !tbaa !4
  %206 = getelementptr inbounds nuw %struct.AVMotionEstContext, ptr %205, i32 0, i32 14
  %207 = load ptr, ptr %206, align 8, !tbaa !17
  %208 = load ptr, ptr %6, align 8, !tbaa !4
  %209 = load i32, ptr %7, align 4, !tbaa !9
  %210 = load i32, ptr %8, align 4, !tbaa !9
  %211 = load i32, ptr %10, align 4, !tbaa !9
  %212 = load i32, ptr %19, align 4, !tbaa !9
  %213 = sext i32 %212 to i64
  %214 = getelementptr inbounds [8 x [2 x i8]], ptr @sqr1, i64 0, i64 %213
  %215 = getelementptr inbounds [2 x i8], ptr %214, i64 0, i64 0
  %216 = load i8, ptr %215, align 2, !tbaa !28
  %217 = sext i8 %216 to i32
  %218 = load i32, ptr %18, align 4, !tbaa !9
  %219 = mul nsw i32 %217, %218
  %220 = add nsw i32 %211, %219
  %221 = load i32, ptr %11, align 4, !tbaa !9
  %222 = load i32, ptr %19, align 4, !tbaa !9
  %223 = sext i32 %222 to i64
  %224 = getelementptr inbounds [8 x [2 x i8]], ptr @sqr1, i64 0, i64 %223
  %225 = getelementptr inbounds [2 x i8], ptr %224, i64 0, i64 1
  %226 = load i8, ptr %225, align 1, !tbaa !28
  %227 = sext i8 %226 to i32
  %228 = load i32, ptr %18, align 4, !tbaa !9
  %229 = mul nsw i32 %227, %228
  %230 = add nsw i32 %221, %229
  %231 = call i64 %207(ptr noundef %208, i32 noundef %209, i32 noundef %210, i32 noundef %220, i32 noundef %230)
  store i64 %231, ptr %16, align 8, !tbaa !26
  %232 = load i64, ptr %16, align 8, !tbaa !26
  %233 = load i64, ptr %17, align 8, !tbaa !26
  %234 = icmp ult i64 %232, %233
  br i1 %234, label %235, label %261

235:                                              ; preds = %204
  %236 = load i64, ptr %16, align 8, !tbaa !26
  store i64 %236, ptr %17, align 8, !tbaa !26
  %237 = load i32, ptr %10, align 4, !tbaa !9
  %238 = load i32, ptr %19, align 4, !tbaa !9
  %239 = sext i32 %238 to i64
  %240 = getelementptr inbounds [8 x [2 x i8]], ptr @sqr1, i64 0, i64 %239
  %241 = getelementptr inbounds [2 x i8], ptr %240, i64 0, i64 0
  %242 = load i8, ptr %241, align 2, !tbaa !28
  %243 = sext i8 %242 to i32
  %244 = load i32, ptr %18, align 4, !tbaa !9
  %245 = mul nsw i32 %243, %244
  %246 = add nsw i32 %237, %245
  %247 = load ptr, ptr %9, align 8, !tbaa !32
  %248 = getelementptr inbounds i32, ptr %247, i64 0
  store i32 %246, ptr %248, align 4, !tbaa !9
  %249 = load i32, ptr %11, align 4, !tbaa !9
  %250 = load i32, ptr %19, align 4, !tbaa !9
  %251 = sext i32 %250 to i64
  %252 = getelementptr inbounds [8 x [2 x i8]], ptr @sqr1, i64 0, i64 %251
  %253 = getelementptr inbounds [2 x i8], ptr %252, i64 0, i64 1
  %254 = load i8, ptr %253, align 1, !tbaa !28
  %255 = sext i8 %254 to i32
  %256 = load i32, ptr %18, align 4, !tbaa !9
  %257 = mul nsw i32 %255, %256
  %258 = add nsw i32 %249, %257
  %259 = load ptr, ptr %9, align 8, !tbaa !32
  %260 = getelementptr inbounds i32, ptr %259, i64 1
  store i32 %258, ptr %260, align 4, !tbaa !9
  br label %261

261:                                              ; preds = %235, %204
  br label %262

262:                                              ; preds = %261
  br label %263

263:                                              ; preds = %262
  br label %264

264:                                              ; preds = %263, %190, %177, %164, %151
  br label %265

265:                                              ; preds = %264
  %266 = load i32, ptr %19, align 4, !tbaa !9
  %267 = add nsw i32 %266, 1
  store i32 %267, ptr %19, align 4, !tbaa !9
  br label %148, !llvm.loop !36

268:                                              ; preds = %148
  %269 = load i32, ptr %18, align 4, !tbaa !9
  %270 = ashr i32 %269, 1
  store i32 %270, ptr %18, align 4, !tbaa !9
  br label %271

271:                                              ; preds = %268
  %272 = load i32, ptr %18, align 4, !tbaa !9
  %273 = icmp sgt i32 %272, 0
  br i1 %273, label %141, label %274, !llvm.loop !37

274:                                              ; preds = %271
  %275 = load i64, ptr %17, align 8, !tbaa !26
  store i64 %275, ptr %5, align 8
  store i32 1, ptr %20, align 4
  br label %276

276:                                              ; preds = %274, %138
  call void @llvm.lifetime.end.p0(i64 4, ptr %19) #2
  call void @llvm.lifetime.end.p0(i64 4, ptr %18) #2
  call void @llvm.lifetime.end.p0(i64 8, ptr %17) #2
  call void @llvm.lifetime.end.p0(i64 8, ptr %16) #2
  call void @llvm.lifetime.end.p0(i64 4, ptr %15) #2
  call void @llvm.lifetime.end.p0(i64 4, ptr %14) #2
  call void @llvm.lifetime.end.p0(i64 4, ptr %13) #2
  call void @llvm.lifetime.end.p0(i64 4, ptr %12) #2
  call void @llvm.lifetime.end.p0(i64 4, ptr %11) #2
  call void @llvm.lifetime.end.p0(i64 4, ptr %10) #2
  %277 = load i64, ptr %5, align 8
  ret i64 %277
}