; Function Attrs: nounwind uwtable
define i64 @ff_me_search_tss(ptr noundef %0, i32 noundef %1, i32 noundef %2, ptr noundef captures(none) initializes((0, 8)) %3) local_unnamed_addr #2 {
  %5 = getelementptr inbounds nuw i8, ptr %0, i64 36
  %6 = load i32, ptr %5, align 4, !tbaa !15
  %7 = getelementptr inbounds nuw i8, ptr %0, i64 24
  %8 = load i32, ptr %7, align 8, !tbaa !13
  %9 = sub nsw i32 %1, %8
  %. = tail call i32 @llvm.smax.i32(i32 %6, i32 %9)
  %10 = getelementptr inbounds nuw i8, ptr %0, i64 44
  %11 = load i32, ptr %10, align 4, !tbaa !17
  %12 = sub nsw i32 %2, %8
  %13 = tail call i32 @llvm.smax.i32(i32 %11, i32 %12)
  %14 = add nsw i32 %8, %1
  %15 = getelementptr inbounds nuw i8, ptr %0, i64 40
  %16 = load i32, ptr %15, align 8, !tbaa !16
  %17 = tail call i32 @llvm.smin.i32(i32 %14, i32 %16)
  %18 = add nsw i32 %8, %2
  %19 = getelementptr inbounds nuw i8, ptr %0, i64 48
  %20 = load i32, ptr %19, align 8, !tbaa !18
  %21 = tail call i32 @llvm.smin.i32(i32 %18, i32 %20)
  store i32 %1, ptr %3, align 4, !tbaa !26
  %22 = getelementptr inbounds nuw i8, ptr %3, i64 4
  store i32 %2, ptr %22, align 4, !tbaa !26
  %23 = getelementptr inbounds nuw i8, ptr %0, i64 232
  %24 = load ptr, ptr %23, align 8, !tbaa !14
  %25 = tail call i64 %24(ptr noundef %0, i32 noundef %1, i32 noundef %2, i32 noundef %1, i32 noundef %2) #4
  %.not = icmp eq i64 %25, 0
  br i1 %.not, label %.loopexit, label %.preheader.preheader

.preheader.preheader:                             ; preds = %4
  %.inv = icmp sgt i32 %8, -1
  %.v = select i1 %.inv, i32 1, i32 -1
  %26 = add nsw i32 %.v, %8
  %27 = sdiv i32 %26, 2
  br label %.preheader

.preheader:                                       ; preds = %.preheader.preheader, %48
  %.083 = phi i64 [ %.2, %48 ], [ %25, %.preheader.preheader ]
  %.082 = phi i32 [ %49, %48 ], [ %27, %.preheader.preheader ]
  %28 = load i32, ptr %3, align 4, !tbaa !26
  %29 = load i32, ptr %22, align 4, !tbaa !26
  br label %30

30:                                               ; preds = %.preheader, %47
  %indvars.iv = phi i64 [ 0, %.preheader ], [ %indvars.iv.next, %47 ]
  %.1106 = phi i64 [ %.083, %.preheader ], [ %.2, %47 ]
  %31 = getelementptr inbounds nuw [8 x [2 x i8]], ptr @sqr1, i64 0, i64 %indvars.iv
  %32 = load i8, ptr %31, align 2, !tbaa !22
  %33 = sext i8 %32 to i32
  %34 = mul nsw i32 %.082, %33
  %35 = add nsw i32 %34, %28
  %.not101 = icmp slt i32 %35, %.
  %.not102 = icmp sgt i32 %35, %17
  %or.cond = select i1 %.not101, i1 true, i1 %.not102
  br i1 %or.cond, label %47, label %36

36:                                               ; preds = %30
  %37 = getelementptr inbounds nuw i8, ptr %31, i64 1
  %38 = load i8, ptr %37, align 1, !tbaa !22
  %39 = sext i8 %38 to i32
  %40 = mul nsw i32 %.082, %39
  %41 = add nsw i32 %40, %29
  %.not103 = icmp slt i32 %41, %13
  %.not104 = icmp sgt i32 %41, %21
  %or.cond105 = select i1 %.not103, i1 true, i1 %.not104
  br i1 %or.cond105, label %47, label %42

42:                                               ; preds = %36
  %43 = load ptr, ptr %23, align 8, !tbaa !14
  %44 = tail call i64 %43(ptr noundef %0, i32 noundef %1, i32 noundef %2, i32 noundef %35, i32 noundef %41) #4
  %45 = icmp ult i64 %44, %.1106
  br i1 %45, label %46, label %47

46:                                               ; preds = %42
  store i32 %35, ptr %3, align 4, !tbaa !26
  store i32 %41, ptr %22, align 4, !tbaa !26
  br label %47

47:                                               ; preds = %30, %36, %46, %42
  %.2 = phi i64 [ %44, %46 ], [ %.1106, %42 ], [ %.1106, %36 ], [ %.1106, %30 ]
  %indvars.iv.next = add nuw nsw i64 %indvars.iv, 1
  %exitcond.not = icmp eq i64 %indvars.iv.next, 8
  br i1 %exitcond.not, label %48, label %30, !llvm.loop !29

48:                                               ; preds = %47
  %49 = ashr i32 %.082, 1
  %50 = icmp sgt i32 %49, 0
  br i1 %50, label %.preheader, label %.loopexit, !llvm.loop !30

.loopexit:                                        ; preds = %48, %4
  %.084 = phi i64 [ 0, %4 ], [ %.2, %48 ]
  ret i64 %.084
}